target datalayout = "e-m:e-p270:32:32-p271:32:32-p272:64:64-i64:64-i128:128-f80:128-n8:16:32:64-S128"
target triple = "x86_64-pc-linux-gnu"

%struct.rb_data_type_struct = type { ptr, %struct.anon, ptr, ptr, i64 }
%struct.anon = type { ptr, ptr, ptr, ptr, [1 x ptr] }
%struct.rb_io_buffer = type { ptr, i64, i32, i64 }

@rb_io_buffer_type = internal constant %struct.rb_data_type_struct { ptr @.str.108, %struct.anon { ptr @rb_io_buffer_type_mark, ptr @rb_io_buffer_type_free, ptr @rb_io_buffer_type_size, ptr null, [1 x ptr] zeroinitializer }, ptr null, ptr null, i64 35 }, align 8

; Function Attrs: nounwind sspstrong uwtable
define dso_local i32 @rb_io_buffer_try_unlock(i64 noundef %0) #0 {
  %2 = alloca i32, align 4
  %3 = alloca i64, align 8
  %4 = alloca ptr, align 8
  %5 = alloca i32, align 4
  store i64 %0, ptr %3, align 8, !tbaa !20
  call void @llvm.lifetime.start.p0(i64 8, ptr %4) #22
  store ptr null, ptr %4, align 8, !tbaa !11
  %6 = load i64, ptr %3, align 8, !tbaa !20
  %7 = call ptr @rb_check_typeddata(i64 noundef %6, ptr noundef @rb_io_buffer_type)
  store ptr %7, ptr %4, align 8, !tbaa !11
  %8 = load ptr, ptr %4, align 8, !tbaa !11
  %9 = getelementptr inbounds nuw %struct.rb_io_buffer, ptr %8, i32 0, i32 2
  %10 = load i32, ptr %9, align 8, !tbaa !18
  %11 = and i32 %10, 32
  %12 = icmp ne i32 %11, 0
  br i1 %12, label %13, label %18

13:                                               ; preds = %1
  %14 = load ptr, ptr %4, align 8, !tbaa !11
  %15 = getelementptr inbounds nuw %struct.rb_io_buffer, ptr %14, i32 0, i32 2
  %16 = load i32, ptr %15, align 8, !tbaa !18
  %17 = and i32 %16, -33
  store i32 %17, ptr %15, align 8, !tbaa !18
  store i32 1, ptr %2, align 4
  store i32 1, ptr %5, align 4
  br label %19

18:                                               ; preds = %1
  store i32 0, ptr %2, align 4
  store i32 1, ptr %5, align 4
  br label %19

19:                                               ; preds = %18, %13
  call void @llvm.lifetime.end.p0(i64 8, ptr %4) #22
  %20 = load i32, ptr %2, align 4
  ret i32 %20
}