; Function Attrs: nounwind sspstrong uwtable
define dso_local range(i32 0, 2) i32 @rb_io_buffer_try_unlock(i64 noundef %0) local_unnamed_addr #0 {
  %2 = tail call ptr @rb_check_typeddata(i64 noundef %0, ptr noundef nonnull @rb_io_buffer_type) #25
  %3 = getelementptr inbounds nuw i8, ptr %2, i64 16
  %4 = load i32, ptr %3, align 8, !tbaa !15
  %5 = and i32 %4, 32
  %.not = icmp eq i32 %5, 0
  br i1 %.not, label %8, label %6

6:                                                ; preds = %1
  %7 = and i32 %4, -33
  store i32 %7, ptr %3, align 8, !tbaa !15
  br label %8

8:                                                ; preds = %1, %6
  %.0 = phi i32 [ 1, %6 ], [ 0, %1 ]
  ret i32 %.0
}